target datalayout = "e-m:e-p270:32:32-p271:32:32-p272:64:64-i64:64-i128:128-f80:128-n8:16:32:64-S128"
target triple = "x86_64-pc-linux-gnu"

%class.ABstats = type { [8 x %"class.std::__cxx11::basic_string"], %struct.ABtracker, %struct.ABtracker, [2 x %struct.ABtracker], [8 x %struct.ABtracker] }
%"class.std::__cxx11::basic_string" = type { %"struct.std::__cxx11::basic_string<char>::_Alloc_hider", i64, %union.anon }
%"struct.std::__cxx11::basic_string<char>::_Alloc_hider" = type { ptr }
%union.anon = type { i64, [8 x i8] }
%struct.ABtracker = type { [49 x i32], i32, i32, i32, i32 }
%"struct.std::_Setw" = type { i32 }

@.str.14 = private unnamed_addr constant [2 x i8] c"\0A\00", align 1

; Function Attrs: mustprogress nounwind uwtable
define linkonce_odr i32 @_ZSt4setwi(i32 noundef %0) #5 comdat {
  %2 = alloca %"struct.std::_Setw", align 4
  %3 = alloca i32, align 4
  store i32 %0, ptr %3, align 4
  %4 = getelementptr inbounds nuw %"struct.std::_Setw", ptr %2, i32 0, i32 0
  %5 = load i32, ptr %3, align 4
  store i32 %5, ptr %4, align 4
  %6 = getelementptr inbounds nuw %"struct.std::_Setw", ptr %2, i32 0, i32 0
  %7 = load i32, ptr %6, align 4
  ret i32 %7
}

; Function Attrs: mustprogress uwtable
define void @_ZNK7ABstats16PrintStatsDetailERSt14basic_ofstreamIcSt11char_traitsIcEEi(ptr noundef nonnull align 8 dereferenceable(2800) %0, ptr noundef nonnull align 8 dereferenceable(248) %1, i32 noundef %2) #4 align 2 {
  %4 = alloca ptr, align 8
  %5 = alloca ptr, align 8
  %6 = alloca i32, align 4
  %7 = alloca %"struct.std::_Setw", align 4
  %8 = alloca %"struct.std::_Setw", align 4
  %9 = alloca %"struct.std::_Setw", align 4
  %10 = alloca i32, align 4
  %11 = alloca %"struct.std::_Setw", align 4
  store ptr %0, ptr %4, align 8
  store ptr %1, ptr %5, align 8
  store i32 %2, ptr %6, align 4
  %12 = load ptr, ptr %4, align 8
  %13 = getelementptr inbounds nuw %class.ABstats, ptr %12, i32 0, i32 3
  %14 = getelementptr inbounds [2 x %struct.ABtracker], ptr %13, i64 0, i64 1
  %15 = getelementptr inbounds nuw %struct.ABtracker, ptr %14, i32 0, i32 0
  %16 = load i32, ptr %6, align 4
  %17 = sext i32 %16 to i64
  %18 = getelementptr inbounds [49 x i32], ptr %15, i64 0, i64 %17
  %19 = load i32, ptr %18, align 4
  %20 = icmp eq i32 %19, 0
  br i1 %20, label %21, label %31

21:                                               ; preds = %3
  %22 = getelementptr inbounds nuw %class.ABstats, ptr %12, i32 0, i32 3
  %23 = getelementptr inbounds [2 x %struct.ABtracker], ptr %22, i64 0, i64 0
  %24 = getelementptr inbounds nuw %struct.ABtracker, ptr %23, i32 0, i32 0
  %25 = load i32, ptr %6, align 4
  %26 = sext i32 %25 to i64
  %27 = getelementptr inbounds [49 x i32], ptr %24, i64 0, i64 %26
  %28 = load i32, ptr %27, align 4
  %29 = icmp eq i32 %28, 0
  br i1 %29, label %30, label %31

30:                                               ; preds = %21
  br label %92

31:                                               ; preds = %21, %3
  %32 = load ptr, ptr %5, align 8
  %33 = call i32 @_ZSt4setwi(i32 noundef 2)
  %34 = getelementptr inbounds nuw %"struct.std::_Setw", ptr %7, i32 0, i32 0
  store i32 %33, ptr %34, align 4
  %35 = getelementptr inbounds nuw %"struct.std::_Setw", ptr %7, i32 0, i32 0
  %36 = load i32, ptr %35, align 4
  %37 = call noundef nonnull align 8 dereferenceable(8) ptr @_ZStlsIcSt11char_traitsIcEERSt13basic_ostreamIT_T0_ES6_St5_Setw(ptr noundef nonnull align 8 dereferenceable(8) %32, i32 %36)
  %38 = load i32, ptr %6, align 4
  %39 = call noundef nonnull align 8 dereferenceable(8) ptr @_ZNSolsEi(ptr noundef nonnull align 8 dereferenceable(8) %37, i32 noundef %38)
  %40 = call i32 @_ZSt4setwi(i32 noundef 7)
  %41 = getelementptr inbounds nuw %"struct.std::_Setw", ptr %8, i32 0, i32 0
  store i32 %40, ptr %41, align 4
  %42 = getelementptr inbounds nuw %"struct.std::_Setw", ptr %8, i32 0, i32 0
  %43 = load i32, ptr %42, align 4
  %44 = call noundef nonnull align 8 dereferenceable(8) ptr @_ZStlsIcSt11char_traitsIcEERSt13basic_ostreamIT_T0_ES6_St5_Setw(ptr noundef nonnull align 8 dereferenceable(8) %39, i32 %43)
  %45 = getelementptr inbounds nuw %class.ABstats, ptr %12, i32 0, i32 3
  %46 = getelementptr inbounds [2 x %struct.ABtracker], ptr %45, i64 0, i64 1
  %47 = getelementptr inbounds nuw %struct.ABtracker, ptr %46, i32 0, i32 0
  %48 = load i32, ptr %6, align 4
  %49 = sext i32 %48 to i64
  %50 = getelementptr inbounds [49 x i32], ptr %47, i64 0, i64 %49
  %51 = load i32, ptr %50, align 4
  %52 = call noundef nonnull align 8 dereferenceable(8) ptr @_ZNSolsEi(ptr noundef nonnull align 8 dereferenceable(8) %44, i32 noundef %51)
  %53 = call i32 @_ZSt4setwi(i32 noundef 7)
  %54 = getelementptr inbounds nuw %"struct.std::_Setw", ptr %9, i32 0, i32 0
  store i32 %53, ptr %54, align 4
  %55 = getelementptr inbounds nuw %"struct.std::_Setw", ptr %9, i32 0, i32 0
  %56 = load i32, ptr %55, align 4
  %57 = call noundef nonnull align 8 dereferenceable(8) ptr @_ZStlsIcSt11char_traitsIcEERSt13basic_ostreamIT_T0_ES6_St5_Setw(ptr noundef nonnull align 8 dereferenceable(8) %52, i32 %56)
  %58 = getelementptr inbounds nuw %class.ABstats, ptr %12, i32 0, i32 3
  %59 = getelementptr inbounds [2 x %struct.ABtracker], ptr %58, i64 0, i64 0
  %60 = getelementptr inbounds nuw %struct.ABtracker, ptr %59, i32 0, i32 0
  %61 = load i32, ptr %6, align 4
  %62 = sext i32 %61 to i64
  %63 = getelementptr inbounds [49 x i32], ptr %60, i64 0, i64 %62
  %64 = load i32, ptr %63, align 4
  %65 = call noundef nonnull align 8 dereferenceable(8) ptr @_ZNSolsEi(ptr noundef nonnull align 8 dereferenceable(8) %57, i32 noundef %64)
  store i32 0, ptr %10, align 4
  br label %66

66:                                               ; preds = %86, %31
  %67 = load i32, ptr %10, align 4
  %68 = icmp slt i32 %67, 8
  br i1 %68, label %69, label %89

69:                                               ; preds = %66
  %70 = load ptr, ptr %5, align 8
  %71 = call i32 @_ZSt4setwi(i32 noundef 6)
  %72 = getelementptr inbounds nuw %"struct.std::_Setw", ptr %11, i32 0, i32 0
  store i32 %71, ptr %72, align 4
  %73 = getelementptr inbounds nuw %"struct.std::_Setw", ptr %11, i32 0, i32 0
  %74 = load i32, ptr %73, align 4
  %75 = call noundef nonnull align 8 dereferenceable(8) ptr @_ZStlsIcSt11char_traitsIcEERSt13basic_ostreamIT_T0_ES6_St5_Setw(ptr noundef nonnull align 8 dereferenceable(8) %70, i32 %74)
  %76 = getelementptr inbounds nuw %class.ABstats, ptr %12, i32 0, i32 4
  %77 = load i32, ptr %10, align 4
  %78 = sext i32 %77 to i64
  %79 = getelementptr inbounds [8 x %struct.ABtracker], ptr %76, i64 0, i64 %78
  %80 = getelementptr inbounds nuw %struct.ABtracker, ptr %79, i32 0, i32 0
  %81 = load i32, ptr %6, align 4
  %82 = sext i32 %81 to i64
  %83 = getelementptr inbounds [49 x i32], ptr %80, i64 0, i64 %82
  %84 = load i32, ptr %83, align 4
  %85 = call noundef nonnull align 8 dereferenceable(8) ptr @_ZNSolsEi(ptr noundef nonnull align 8 dereferenceable(8) %75, i32 noundef %84)
  br label %86

86:                                               ; preds = %69
  %87 = load i32, ptr %10, align 4
  %88 = add nsw i32 %87, 1
  store i32 %88, ptr %10, align 4
  br label %66, !llvm.loop !13

89:                                               ; preds = %66
  %90 = load ptr, ptr %5, align 8
  %91 = call noundef nonnull align 8 dereferenceable(8) ptr @_ZStlsISt11char_traitsIcEERSt13basic_ostreamIcT_ES5_PKc(ptr noundef nonnull align 8 dereferenceable(8) %90, ptr noundef @.str.14)
  br label %92

92:                                               ; preds = %89, %30
  ret void
}