; Function Attrs: mustprogress uwtable
define void @_ZNK7ABstats16PrintStatsDetailERSt14basic_ofstreamIcSt11char_traitsIcEEi(ptr nocapture noundef nonnull readonly align 8 dereferenceable(2800) %0, ptr noundef nonnull align 8 dereferenceable(248) %1, i32 noundef %2) local_unnamed_addr #3 align 2 {
  %4 = getelementptr inbounds nuw i8, ptr %0, i64 680
  %5 = getelementptr inbounds i8, ptr %0, i64 892
  %6 = sext i32 %2 to i64
  %7 = getelementptr inbounds [49 x i32], ptr %5, i64 0, i64 %6
  %8 = load i32, ptr %7, align 4
  %9 = icmp eq i32 %8, 0
  br i1 %9, label %10, label %14

10:                                               ; preds = %3
  %11 = getelementptr inbounds [49 x i32], ptr %4, i64 0, i64 %6
  %12 = load i32, ptr %11, align 4
  %13 = icmp eq i32 %12, 0
  br i1 %13, label %31, label %14

14:                                               ; preds = %10, %3
  %15 = tail call noundef nonnull align 8 dereferenceable(8) ptr @_ZStlsIcSt11char_traitsIcEERSt13basic_ostreamIT_T0_ES6_St5_Setw(ptr noundef nonnull align 8 dereferenceable(8) %1, i32 2)
  %16 = tail call noundef nonnull align 8 dereferenceable(8) ptr @_ZNSolsEi(ptr noundef nonnull align 8 dereferenceable(8) %15, i32 noundef %2)
  %17 = tail call noundef nonnull align 8 dereferenceable(8) ptr @_ZStlsIcSt11char_traitsIcEERSt13basic_ostreamIT_T0_ES6_St5_Setw(ptr noundef nonnull align 8 dereferenceable(8) %16, i32 7)
  %18 = load i32, ptr %7, align 4
  %19 = tail call noundef nonnull align 8 dereferenceable(8) ptr @_ZNSolsEi(ptr noundef nonnull align 8 dereferenceable(8) %17, i32 noundef %18)
  %20 = tail call noundef nonnull align 8 dereferenceable(8) ptr @_ZStlsIcSt11char_traitsIcEERSt13basic_ostreamIT_T0_ES6_St5_Setw(ptr noundef nonnull align 8 dereferenceable(8) %19, i32 7)
  %21 = getelementptr inbounds [49 x i32], ptr %4, i64 0, i64 %6
  %22 = load i32, ptr %21, align 4
  %23 = tail call noundef nonnull align 8 dereferenceable(8) ptr @_ZNSolsEi(ptr noundef nonnull align 8 dereferenceable(8) %20, i32 noundef %22)
  %24 = getelementptr inbounds nuw i8, ptr %0, i64 1104
  %invariant.gep = getelementptr [49 x i32], ptr %24, i64 0, i64 %6
  br label %25

25:                                               ; preds = %14, %25
  %indvars.iv = phi i64 [ 0, %14 ], [ %indvars.iv.next, %25 ]
  %26 = tail call noundef nonnull align 8 dereferenceable(8) ptr @_ZStlsIcSt11char_traitsIcEERSt13basic_ostreamIT_T0_ES6_St5_Setw(ptr noundef nonnull align 8 dereferenceable(8) %1, i32 6)
  %gep = getelementptr [8 x %struct.ABtracker], ptr %invariant.gep, i64 0, i64 %indvars.iv
  %27 = load i32, ptr %gep, align 4
  %28 = tail call noundef nonnull align 8 dereferenceable(8) ptr @_ZNSolsEi(ptr noundef nonnull align 8 dereferenceable(8) %26, i32 noundef %27)
  %indvars.iv.next = add nuw nsw i64 %indvars.iv, 1
  %exitcond.not = icmp eq i64 %indvars.iv.next, 8
  br i1 %exitcond.not, label %29, label %25, !llvm.loop !10

29:                                               ; preds = %25
  %30 = tail call noundef nonnull align 8 dereferenceable(8) ptr @_ZStlsISt11char_traitsIcEERSt13basic_ostreamIcT_ES5_PKc(ptr noundef nonnull align 8 dereferenceable(8) %1, ptr noundef nonnull @.str.14)
  br label %31

31:                                               ; preds = %10, %29
  ret void
}